; ModuleID = '9/1294.c'
source_filename = "9/1294.c"
target datalayout = "e-m:e-p270:32:32-p271:32:32-p272:64:64-i64:64-f80:128-n8:16:32:64-S128"
target triple = "x86_64-pc-linux-gnu"

@.str = private unnamed_addr constant [3 x i8] c"%d\00", align 1
@.str.1 = private unnamed_addr constant [6 x i8] c"%s %d\00", align 1

; Function Attrs: noinline nounwind uwtable
define dso_local i32 @main() #0 {
  %1 = alloca i32, align 4
  %2 = alloca [100 x i32], align 16
  %3 = alloca [100 x i32], align 16
  %4 = alloca [100 x i32], align 16
  %5 = alloca [100 x [100 x i8]], align 16
  %6 = alloca [100 x [100 x i8]], align 16
  %7 = alloca [100 x [100 x i8]], align 16
  %8 = alloca [100 x i8], align 16
  %9 = alloca i32, align 4
  %10 = alloca i32, align 4
  %11 = alloca i32, align 4
  %12 = alloca i32, align 4
  %13 = alloca i32, align 4
  %14 = alloca i32, align 4
  store i32 0, i32* %1, align 4
  store i32 -1, i32* %10, align 4
  store i32 -1, i32* %11, align 4
  %15 = call i32 (i8*, ...) @__isoc99_scanf(i8* getelementptr inbounds ([3 x i8], [3 x i8]* @.str, i64 0, i64 0), i32* %9)
  store i32 0, i32* %14, align 4
  br label %16

16:                                               ; preds = %79, %0
  %17 = load i32, i32* %14, align 4
  %18 = load i32, i32* %9, align 4
  %19 = icmp slt i32 %17, %18
  br i1 %19, label %20, label %82

20:                                               ; preds = %16
  %21 = load i32, i32* %14, align 4
  %22 = sext i32 %21 to i64
  %23 = getelementptr inbounds [100 x [100 x i8]], [100 x [100 x i8]]* %5, i64 0, i64 %22
  %24 = getelementptr inbounds [100 x i8], [100 x i8]* %23, i64 0, i64 0
  %25 = load i32, i32* %14, align 4
  %26 = sext i32 %25 to i64
  %27 = getelementptr inbounds [100 x i32], [100 x i32]* %2, i64 0, i64 %26
  %28 = call i32 (i8*, ...) @__isoc99_scanf(i8* getelementptr inbounds ([6 x i8], [6 x i8]* @.str.1, i64 0, i64 0), i8* %24, i32* %27)
  %29 = load i32, i32* %14, align 4
  %30 = sext i32 %29 to i64
  %31 = getelementptr inbounds [100 x i32], [100 x i32]* %2, i64 0, i64 %30
  %32 = load i32, i32* %31, align 4
  %33 = icmp sge i32 %32, 60
  br i1 %33, label %34, label %53

34:                                               ; preds = %20
  %35 = load i32, i32* %10, align 4
  %36 = add nsw i32 %35, 1
  store i32 %36, i32* %10, align 4
  %37 = load i32, i32* %14, align 4
  %38 = sext i32 %37 to i64
  %39 = getelementptr inbounds [100 x i32], [100 x i32]* %2, i64 0, i64 %38
  %40 = load i32, i32* %39, align 4
  %41 = load i32, i32* %10, align 4
  %42 = sext i32 %41 to i64
  %43 = getelementptr inbounds [100 x i32], [100 x i32]* %3, i64 0, i64 %42
  store i32 %40, i32* %43, align 4
  %44 = load i32, i32* %10, align 4
  %45 = sext i32 %44 to i64
  %46 = getelementptr inbounds [100 x [100 x i8]], [100 x [100 x i8]]* %6, i64 0, i64 %45
  %47 = getelementptr inbounds [100 x i8], [100 x i8]* %46, i64 0, i64 0
  %48 = load i32, i32* %14, align 4
  %49 = sext i32 %48 to i64
  %50 = getelementptr inbounds [100 x [100 x i8]], [100 x [100 x i8]]* %5, i64 0, i64 %49
  %51 = getelementptr inbounds [100 x i8], [100 x i8]* %50, i64 0, i64 0
  %52 = call i8* @strcpy(i8* %47, i8* %51) #3
  br label %53

53:                                               ; preds = %34, %20
  %54 = load i32, i32* %14, align 4
  %55 = sext i32 %54 to i64
  %56 = getelementptr inbounds [100 x i32], [100 x i32]* %2, i64 0, i64 %55
  %57 = load i32, i32* %56, align 4
  %58 = icmp slt i32 %57, 60
  br i1 %58, label %59, label %78

59:                                               ; preds = %53
  %60 = load i32, i32* %11, align 4
  %61 = add nsw i32 %60, 1
  store i32 %61, i32* %11, align 4
  %62 = load i32, i32* %14, align 4
  %63 = sext i32 %62 to i64
  %64 = getelementptr inbounds [100 x i32], [100 x i32]* %2, i64 0, i64 %63
  %65 = load i32, i32* %64, align 4
  %66 = load i32, i32* %11, align 4
  %67 = sext i32 %66 to i64
  %68 = getelementptr inbounds [100 x i32], [100 x i32]* %4, i64 0, i64 %67
  store i32 %65, i32* %68, align 4
  %69 = load i32, i32* %11, align 4
  %70 = sext i32 %69 to i64
  %71 = getelementptr inbounds [100 x [100 x i8]], [100 x [100 x i8]]* %7, i64 0, i64 %70
  %72 = getelementptr inbounds [100 x i8], [100 x i8]* %71, i64 0, i64 0
  %73 = load i32, i32* %14, align 4
  %74 = sext i32 %73 to i64
  %75 = getelementptr inbounds [100 x [100 x i8]], [100 x [100 x i8]]* %5, i64 0, i64 %74
  %76 = getelementptr inbounds [100 x i8], [100 x i8]* %75, i64 0, i64 0
  %77 = call i8* @strcpy(i8* %72, i8* %76) #3
  br label %78

78:                                               ; preds = %59, %53
  br label %79

79:                                               ; preds = %78
  %80 = load i32, i32* %14, align 4
  %81 = add nsw i32 %80, 1
  store i32 %81, i32* %14, align 4
  br label %16

82:                                               ; preds = %16
  store i32 1, i32* %12, align 4
  br label %83

83:                                               ; preds = %153, %82
  %84 = load i32, i32* %12, align 4
  %85 = load i32, i32* %10, align 4
  %86 = add nsw i32 %85, 1
  %87 = icmp sle i32 %84, %86
  br i1 %87, label %88, label %156

88:                                               ; preds = %83
  store i32 0, i32* %14, align 4
  br label %89

89:                                               ; preds = %149, %88
  %90 = load i32, i32* %14, align 4
  %91 = load i32, i32* %10, align 4
  %92 = add nsw i32 %91, 1
  %93 = load i32, i32* %12, align 4
  %94 = sub nsw i32 %92, %93
  %95 = icmp slt i32 %90, %94
  br i1 %95, label %96, label %152

96:                                               ; preds = %89
  %97 = load i32, i32* %14, align 4
  %98 = sext i32 %97 to i64
  %99 = getelementptr inbounds [100 x i32], [100 x i32]* %3, i64 0, i64 %98
  %100 = load i32, i32* %99, align 4
  %101 = load i32, i32* %14, align 4
  %102 = add nsw i32 %101, 1
  %103 = sext i32 %102 to i64
  %104 = getelementptr inbounds [100 x i32], [100 x i32]* %3, i64 0, i64 %103
  %105 = load i32, i32* %104, align 4
  %106 = icmp slt i32 %100, %105
  br i1 %106, label %107, label %148

107:                                              ; preds = %96
  %108 = load i32, i32* %14, align 4
  %109 = sext i32 %108 to i64
  %110 = getelementptr inbounds [100 x i32], [100 x i32]* %3, i64 0, i64 %109
  %111 = load i32, i32* %110, align 4
  store i32 %111, i32* %13, align 4
  %112 = load i32, i32* %14, align 4
  %113 = add nsw i32 %112, 1
  %114 = sext i32 %113 to i64
  %115 = getelementptr inbounds [100 x i32], [100 x i32]* %3, i64 0, i64 %114
  %116 = load i32, i32* %115, align 4
  %117 = load i32, i32* %14, align 4
  %118 = sext i32 %117 to i64
  %119 = getelementptr inbounds [100 x i32], [100 x i32]* %3, i64 0, i64 %118
  store i32 %116, i32* %119, align 4
  %120 = load i32, i32* %13, align 4
  %121 = load i32, i32* %14, align 4
  %122 = add nsw i32 %121, 1
  %123 = sext i32 %122 to i64
  %124 = getelementptr inbounds [100 x i32], [100 x i32]* %3, i64 0, i64 %123
  store i32 %120, i32* %124, align 4
  %125 = getelementptr inbounds [100 x i8], [100 x i8]* %8, i64 0, i64 0
  %126 = load i32, i32* %14, align 4
  %127 = sext i32 %126 to i64
  %128 = getelementptr inbounds [100 x [100 x i8]], [100 x [100 x i8]]* %6, i64 0, i64 %127
  %129 = getelementptr inbounds [100 x i8], [100 x i8]* %128, i64 0, i64 0
  %130 = call i8* @strcpy(i8* %125, i8* %129) #3
  %131 = load i32, i32* %14, align 4
  %132 = sext i32 %131 to i64
  %133 = getelementptr inbounds [100 x [100 x i8]], [100 x [100 x i8]]* %6, i64 0, i64 %132
  %134 = getelementptr inbounds [100 x i8], [100 x i8]* %133, i64 0, i64 0
  %135 = load i32, i32* %14, align 4
  %136 = add nsw i32 %135, 1
  %137 = sext i32 %136 to i64
  %138 = getelementptr inbounds [100 x [100 x i8]], [100 x [100 x i8]]* %6, i64 0, i64 %137
  %139 = getelementptr inbounds [100 x i8], [100 x i8]* %138, i64 0, i64 0
  %140 = call i8* @strcpy(i8* %134, i8* %139) #3
  %141 = load i32, i32* %14, align 4
  %142 = add nsw i32 %141, 1
  %143 = sext i32 %142 to i64
  %144 = getelementptr inbounds [100 x [100 x i8]], [100 x [100 x i8]]* %6, i64 0, i64 %143
  %145 = getelementptr inbounds [100 x i8], [100 x i8]* %144, i64 0, i64 0
  %146 = getelementptr inbounds [100 x i8], [100 x i8]* %8, i64 0, i64 0
  %147 = call i8* @strcpy(i8* %145, i8* %146) #3
  br label %148

148:                                              ; preds = %107, %96
  br label %149

149:                                              ; preds = %148
  %150 = load i32, i32* %14, align 4
  %151 = add nsw i32 %150, 1
  store i32 %151, i32* %14, align 4
  br label %89

152:                                              ; preds = %89
  br label %153

153:                                              ; preds = %152
  %154 = load i32, i32* %12, align 4
  %155 = add nsw i32 %154, 1
  store i32 %155, i32* %12, align 4
  br label %83

156:                                              ; preds = %83
  store i32 0, i32* %14, align 4
  br label %157

157:                                              ; preds = %167, %156
  %158 = load i32, i32* %14, align 4
  %159 = load i32, i32* %10, align 4
  %160 = icmp sle i32 %158, %159
  br i1 %160, label %161, label %170

161:                                              ; preds = %157
  %162 = load i32, i32* %14, align 4
  %163 = sext i32 %162 to i64
  %164 = getelementptr inbounds [100 x [100 x i8]], [100 x [100 x i8]]* %6, i64 0, i64 %163
  %165 = getelementptr inbounds [100 x i8], [100 x i8]* %164, i64 0, i64 0
  %166 = call i32 @puts(i8* %165)
  br label %167

167:                                              ; preds = %161
  %168 = load i32, i32* %14, align 4
  %169 = add nsw i32 %168, 1
  store i32 %169, i32* %14, align 4
  br label %157

170:                                              ; preds = %157
  store i32 0, i32* %14, align 4
  br label %171

171:                                              ; preds = %181, %170
  %172 = load i32, i32* %14, align 4
  %173 = load i32, i32* %11, align 4
  %174 = icmp sle i32 %172, %173
  br i1 %174, label %175, label %184

175:                                              ; preds = %171
  %176 = load i32, i32* %14, align 4
  %177 = sext i32 %176 to i64
  %178 = getelementptr inbounds [100 x [100 x i8]], [100 x [100 x i8]]* %7, i64 0, i64 %177
  %179 = getelementptr inbounds [100 x i8], [100 x i8]* %178, i64 0, i64 0
  %180 = call i32 @puts(i8* %179)
  br label %181

181:                                              ; preds = %175
  %182 = load i32, i32* %14, align 4
  %183 = add nsw i32 %182, 1
  store i32 %183, i32* %14, align 4
  br label %171

184:                                              ; preds = %171
  ret i32 0
}

declare dso_local i32 @__isoc99_scanf(i8*, ...) #1

; Function Attrs: nounwind
declare dso_local i8* @strcpy(i8*, i8*) #2

declare dso_local i32 @puts(i8*) #1


!llvm.module.flags = !{!0}
!llvm.ident = !{!1}

!0 = !{i32 1, !"wchar_size", i32 4}
!1 = !{!"clang version 10.0.0-4ubuntu1 "}
